; Function Attrs: mustprogress nofree norecurse nosync nounwind willreturn memory(argmem: readwrite) uwtable
define dso_local void @_ZNK4llvm11MCSymbolELF10setBindingEj(ptr nocapture noundef nonnull align 8 dereferenceable(40) %0, i32 noundef %1) local_unnamed_addr #0 align 2 {
  %3 = getelementptr inbounds nuw i8, ptr %0, i64 8
  %4 = load i64, ptr %3, align 8
  switch i32 %1, label %5 [
    i32 0, label %9
    i32 1, label %6
    i32 2, label %7
    i32 10, label %8
  ]

5:                                                ; preds = %2
  unreachable

6:                                                ; preds = %2
  br label %9

7:                                                ; preds = %2
  br label %9

8:                                                ; preds = %2
  br label %9

9:                                                ; preds = %2, %8, %7, %6
  %.0 = phi i64 [ 103079215104, %8 ], [ 68719476736, %7 ], [ 34359738368, %6 ], [ 0, %2 ]
  %10 = and i64 %4, -17695265259521
  %11 = or disjoint i64 %10, %.0
  %12 = or disjoint i64 %11, 17592186044416
  store i64 %12, ptr %3, align 8
  ret void
}